target datalayout = "e-m:e-p270:32:32-p271:32:32-p272:64:64-i64:64-i128:128-f80:128-n8:16:32:64-S128"
target triple = "x86_64-pc-linux-gnu"

%struct.Cof_Man_t_ = type { ptr, ptr, ptr, i32, i32, i32, ptr, i32, ptr, i32 }
%struct.Cof_Obj_t_ = type { i32, i32, i32, i32, i32, i32, [0 x %struct.Cof_Fan_t_] }
%struct.Cof_Fan_t_ = type { i32 }

; Function Attrs: inlinehint nounwind uwtable
define internal i32 @Cof_ObjSize(ptr noundef %0) #3 {
  %2 = alloca ptr, align 8
  store ptr %0, ptr %2, align 8, !tbaa !42
  %3 = load ptr, ptr %2, align 8, !tbaa !42
  %4 = load i32, ptr %3, align 4
  %5 = lshr i32 %4, 4
  %6 = and i32 %5, 15
  %7 = zext i32 %6 to i64
  %8 = add i64 6, %7
  %9 = load ptr, ptr %2, align 8, !tbaa !42
  %10 = load i32, ptr %9, align 4
  %11 = lshr i32 %10, 8
  %12 = zext i32 %11 to i64
  %13 = add i64 %8, %12
  %14 = trunc i64 %13 to i32
  ret i32 %14
}

; Function Attrs: inlinehint nounwind uwtable
define internal ptr @Cof_ManObj(ptr noundef %0, i32 noundef %1) #3 {
  %3 = alloca ptr, align 8
  %4 = alloca i32, align 4
  store ptr %0, ptr %3, align 8, !tbaa !10
  store i32 %1, ptr %4, align 4, !tbaa !8
  %5 = load ptr, ptr %3, align 8, !tbaa !10
  %6 = getelementptr inbounds nuw %struct.Cof_Man_t_, ptr %5, i32 0, i32 6
  %7 = load ptr, ptr %6, align 8, !tbaa !19
  %8 = load i32, ptr %4, align 4, !tbaa !8
  %9 = zext i32 %8 to i64
  %10 = getelementptr inbounds nuw i32, ptr %7, i64 %9
  ret ptr %10
}

; Function Attrs: nounwind uwtable
define void @Cof_ManCleanValue(ptr noundef %0) #0 {
  %2 = alloca ptr, align 8
  %3 = alloca ptr, align 8
  %4 = alloca i32, align 4
  store ptr %0, ptr %2, align 8, !tbaa !10
  call void @llvm.lifetime.start.p0(i64 8, ptr %3) #13
  call void @llvm.lifetime.start.p0(i64 4, ptr %4) #13
  store i32 0, ptr %4, align 4, !tbaa !8
  br label %5

5:                                                ; preds = %21, %1
  %6 = load i32, ptr %4, align 4, !tbaa !8
  %7 = load ptr, ptr %2, align 8, !tbaa !10
  %8 = getelementptr inbounds nuw %struct.Cof_Man_t_, ptr %7, i32 0, i32 7
  %9 = load i32, ptr %8, align 8, !tbaa !18
  %10 = icmp slt i32 %6, %9
  br i1 %10, label %11, label %16

11:                                               ; preds = %5
  %12 = load ptr, ptr %2, align 8, !tbaa !10
  %13 = load i32, ptr %4, align 4, !tbaa !8
  %14 = call ptr @Cof_ManObj(ptr noundef %12, i32 noundef %13)
  store ptr %14, ptr %3, align 8, !tbaa !42
  %15 = icmp ne ptr %14, null
  br label %16

16:                                               ; preds = %11, %5
  %17 = phi i1 [ false, %5 ], [ %15, %11 ]
  br i1 %17, label %18, label %26

18:                                               ; preds = %16
  %19 = load ptr, ptr %3, align 8, !tbaa !42
  %20 = getelementptr inbounds nuw %struct.Cof_Obj_t_, ptr %19, i32 0, i32 2
  store i32 0, ptr %20, align 4, !tbaa !46
  br label %21

21:                                               ; preds = %18
  %22 = load ptr, ptr %3, align 8, !tbaa !42
  %23 = call i32 @Cof_ObjSize(ptr noundef %22)
  %24 = load i32, ptr %4, align 4, !tbaa !8
  %25 = add nsw i32 %24, %23
  store i32 %25, ptr %4, align 4, !tbaa !8
  br label %5, !llvm.loop !71

26:                                               ; preds = %16
  call void @llvm.lifetime.end.p0(i64 4, ptr %4) #13
  call void @llvm.lifetime.end.p0(i64 8, ptr %3) #13
  ret void
}