; Function Attrs: nofree norecurse nosync nounwind memory(readwrite, inaccessiblemem: none) uwtable
define void @Cof_ManCleanValue(ptr noundef readonly captures(none) %0) local_unnamed_addr #8 {
  %2 = getelementptr inbounds nuw i8, ptr %0, i64 48
  %3 = load i32, ptr %2, align 8, !tbaa !37
  %4 = icmp sgt i32 %3, 0
  br i1 %4, label %.lr.ph, label %.critedge

.lr.ph:                                           ; preds = %1
  %5 = getelementptr i8, ptr %0, i64 40
  %.val = load ptr, ptr %5, align 8, !tbaa !38
  %.not = icmp eq ptr %.val, null
  br i1 %.not, label %.critedge, label %.lr.ph.split

.lr.ph.split:                                     ; preds = %.lr.ph, %.lr.ph.split
  %.08 = phi i32 [ %12, %.lr.ph.split ], [ 0, %.lr.ph ]
  %6 = zext nneg i32 %.08 to i64
  %7 = getelementptr inbounds nuw i32, ptr %.val, i64 %6
  %8 = getelementptr inbounds nuw i8, ptr %7, i64 8
  store i32 0, ptr %8, align 4, !tbaa !46
  %.val7 = load i32, ptr %7, align 4
  %9 = lshr i32 %.val7, 4
  %10 = and i32 %9, 15
  %11 = lshr i32 %.val7, 8
  %narrow.i = add nuw nsw i32 %.08, 6
  %narrow2.i = add nuw nsw i32 %narrow.i, %11
  %12 = add nuw nsw i32 %narrow2.i, %10
  %13 = icmp slt i32 %12, %3
  br i1 %13, label %.lr.ph.split, label %.critedge, !llvm.loop !63

.critedge:                                        ; preds = %.lr.ph.split, %.lr.ph, %1
  ret void
}